target datalayout = "e-m:e-p270:32:32-p271:32:32-p272:64:64-i64:64-i128:128-f80:128-n8:16:32:64-S128"
target triple = "x86_64-pc-linux-gnu"

%struct.pg_compress_specification = type { i32, i32, i32, i32, i8, ptr }
%struct._archiveHandle = type { %struct.Archive, i32, ptr, ptr, i64, i64, i32, %struct.sqlparseInfo, i64, i32, ptr, i64, i64, i64, ptr, ptr, ptr, ptr, ptr, ptr, ptr, ptr, ptr, ptr, ptr, ptr, ptr, ptr, ptr, ptr, ptr, ptr, ptr, ptr, ptr, ptr, ptr, ptr, ptr, ptr, ptr, ptr, ptr, ptr, i32, i32, i8, i32, i8, i32, ptr, ptr, ptr, ptr, i32, i32, ptr, ptr, ptr, %struct.pg_compress_specification, i8, i32, i32, ptr, ptr, ptr, ptr, ptr, i32, ptr, i64, i64, i32, i32, i32, i32, ptr, ptr }
%struct.Archive = type { ptr, ptr, i32, ptr, i32, i8, i32, i32, i32, ptr, i32, i8, ptr, ptr, i8, i32, ptr }
%struct.sqlparseInfo = type { i32, i8, ptr }
%struct._tocEntry = type { ptr, ptr, %struct.CatalogId, i32, i32, i8, ptr, ptr, ptr, ptr, i8, ptr, ptr, ptr, ptr, ptr, ptr, i32, ptr, ptr, ptr, i64, i32, i8, ptr, ptr, i32, ptr, i32, ptr, i32 }
%struct.CatalogId = type { i32, i32 }
%struct.ParallelState = type { i32, ptr, ptr }

@.str.87 = private unnamed_addr constant [6 x i8] c"BLOBS\00", align 1

; Function Attrs: nounwind uwtable
define dso_local void @WriteDataChunksForTocEntry(ptr noundef %0, ptr noundef %1) #0 {
  %3 = alloca ptr, align 8
  %4 = alloca ptr, align 8
  %5 = alloca ptr, align 8
  %6 = alloca ptr, align 8
  store ptr %0, ptr %3, align 8
  store ptr %1, ptr %4, align 8
  call void @llvm.lifetime.start.p0(i64 8, ptr %5) #11
  call void @llvm.lifetime.start.p0(i64 8, ptr %6) #11
  %7 = load ptr, ptr %4, align 8
  %8 = load ptr, ptr %3, align 8
  %9 = getelementptr inbounds nuw %struct._archiveHandle, ptr %8, i32 0, i32 58
  store ptr %7, ptr %9, align 8
  %10 = load ptr, ptr %4, align 8
  %11 = getelementptr inbounds nuw %struct._tocEntry, ptr %10, i32 0, i32 12
  %12 = load ptr, ptr %11, align 8
  %13 = call i32 @strcmp(ptr noundef %12, ptr noundef @.str.87) #14
  %14 = icmp eq i32 %13, 0
  br i1 %14, label %15, label %22

15:                                               ; preds = %2
  %16 = load ptr, ptr %3, align 8
  %17 = getelementptr inbounds nuw %struct._archiveHandle, ptr %16, i32 0, i32 28
  %18 = load ptr, ptr %17, align 8
  store ptr %18, ptr %5, align 8
  %19 = load ptr, ptr %3, align 8
  %20 = getelementptr inbounds nuw %struct._archiveHandle, ptr %19, i32 0, i32 29
  %21 = load ptr, ptr %20, align 8
  store ptr %21, ptr %6, align 8
  br label %29

22:                                               ; preds = %2
  %23 = load ptr, ptr %3, align 8
  %24 = getelementptr inbounds nuw %struct._archiveHandle, ptr %23, i32 0, i32 15
  %25 = load ptr, ptr %24, align 8
  store ptr %25, ptr %5, align 8
  %26 = load ptr, ptr %3, align 8
  %27 = getelementptr inbounds nuw %struct._archiveHandle, ptr %26, i32 0, i32 17
  %28 = load ptr, ptr %27, align 8
  store ptr %28, ptr %6, align 8
  br label %29

29:                                               ; preds = %22, %15
  %30 = load ptr, ptr %5, align 8
  %31 = icmp ne ptr %30, null
  br i1 %31, label %32, label %36

32:                                               ; preds = %29
  %33 = load ptr, ptr %5, align 8
  %34 = load ptr, ptr %3, align 8
  %35 = load ptr, ptr %4, align 8
  call void %33(ptr noundef %34, ptr noundef %35)
  br label %36

36:                                               ; preds = %32, %29
  %37 = load ptr, ptr %4, align 8
  %38 = getelementptr inbounds nuw %struct._tocEntry, ptr %37, i32 0, i32 18
  %39 = load ptr, ptr %38, align 8
  %40 = load ptr, ptr %3, align 8
  %41 = load ptr, ptr %4, align 8
  %42 = getelementptr inbounds nuw %struct._tocEntry, ptr %41, i32 0, i32 19
  %43 = load ptr, ptr %42, align 8
  %44 = call i32 %39(ptr noundef %40, ptr noundef %43)
  %45 = load ptr, ptr %6, align 8
  %46 = icmp ne ptr %45, null
  br i1 %46, label %47, label %51

47:                                               ; preds = %36
  %48 = load ptr, ptr %6, align 8
  %49 = load ptr, ptr %3, align 8
  %50 = load ptr, ptr %4, align 8
  call void %48(ptr noundef %49, ptr noundef %50)
  br label %51

51:                                               ; preds = %47, %36
  %52 = load ptr, ptr %3, align 8
  %53 = getelementptr inbounds nuw %struct._archiveHandle, ptr %52, i32 0, i32 58
  store ptr null, ptr %53, align 8
  call void @llvm.lifetime.end.p0(i64 8, ptr %6) #11
  call void @llvm.lifetime.end.p0(i64 8, ptr %5) #11
  ret void
}

; Function Attrs: nounwind uwtable
define dso_local void @WriteDataChunks(ptr noundef %0, ptr noundef %1) #0 {
  %3 = alloca ptr, align 8
  %4 = alloca ptr, align 8
  %5 = alloca ptr, align 8
  %6 = alloca ptr, align 8
  %7 = alloca i32, align 4
  %8 = alloca i32, align 4
  store ptr %0, ptr %3, align 8
  store ptr %1, ptr %4, align 8
  call void @llvm.lifetime.start.p0(i64 8, ptr %5) #11
  %9 = load ptr, ptr %4, align 8
  %10 = icmp ne ptr %9, null
  br i1 %10, label %11, label %86

11:                                               ; preds = %2
  %12 = load ptr, ptr %4, align 8
  %13 = getelementptr inbounds nuw %struct.ParallelState, ptr %12, i32 0, i32 0
  %14 = load i32, ptr %13, align 8
  %15 = icmp sgt i32 %14, 1
  br i1 %15, label %16, label %86

16:                                               ; preds = %11
  call void @llvm.lifetime.start.p0(i64 8, ptr %6) #11
  call void @llvm.lifetime.start.p0(i64 4, ptr %7) #11
  %17 = load ptr, ptr %3, align 8
  %18 = getelementptr inbounds nuw %struct._archiveHandle, ptr %17, i32 0, i32 54
  %19 = load i32, ptr %18, align 8
  %20 = sext i32 %19 to i64
  %21 = mul i64 %20, 8
  %22 = call ptr @pg_malloc(i64 noundef %21)
  store ptr %22, ptr %6, align 8
  store i32 0, ptr %7, align 4
  %23 = load ptr, ptr %3, align 8
  %24 = getelementptr inbounds nuw %struct._archiveHandle, ptr %23, i32 0, i32 53
  %25 = load ptr, ptr %24, align 8
  %26 = getelementptr inbounds nuw %struct._tocEntry, ptr %25, i32 0, i32 1
  %27 = load ptr, ptr %26, align 8
  store ptr %27, ptr %5, align 8
  br label %28

28:                                               ; preds = %54, %16
  %29 = load ptr, ptr %5, align 8
  %30 = load ptr, ptr %3, align 8
  %31 = getelementptr inbounds nuw %struct._archiveHandle, ptr %30, i32 0, i32 53
  %32 = load ptr, ptr %31, align 8
  %33 = icmp ne ptr %29, %32
  br i1 %33, label %34, label %58

34:                                               ; preds = %28
  %35 = load ptr, ptr %5, align 8
  %36 = getelementptr inbounds nuw %struct._tocEntry, ptr %35, i32 0, i32 18
  %37 = load ptr, ptr %36, align 8
  %38 = icmp ne ptr %37, null
  br i1 %38, label %40, label %39

39:                                               ; preds = %34
  br label %54

40:                                               ; preds = %34
  %41 = load ptr, ptr %5, align 8
  %42 = getelementptr inbounds nuw %struct._tocEntry, ptr %41, i32 0, i32 22
  %43 = load i32, ptr %42, align 8
  %44 = and i32 %43, 2
  %45 = icmp eq i32 %44, 0
  br i1 %45, label %46, label %47

46:                                               ; preds = %40
  br label %54

47:                                               ; preds = %40
  %48 = load ptr, ptr %5, align 8
  %49 = load ptr, ptr %6, align 8
  %50 = load i32, ptr %7, align 4
  %51 = add i32 %50, 1
  store i32 %51, ptr %7, align 4
  %52 = sext i32 %50 to i64
  %53 = getelementptr inbounds ptr, ptr %49, i64 %52
  store ptr %48, ptr %53, align 8
  br label %54

54:                                               ; preds = %47, %46, %39
  %55 = load ptr, ptr %5, align 8
  %56 = getelementptr inbounds nuw %struct._tocEntry, ptr %55, i32 0, i32 1
  %57 = load ptr, ptr %56, align 8
  store ptr %57, ptr %5, align 8
  br label %28, !llvm.loop !27

58:                                               ; preds = %28
  %59 = load i32, ptr %7, align 4
  %60 = icmp sgt i32 %59, 1
  br i1 %60, label %61, label %65

61:                                               ; preds = %58
  %62 = load ptr, ptr %6, align 8
  %63 = load i32, ptr %7, align 4
  %64 = sext i32 %63 to i64
  call void @pg_qsort(ptr noundef %62, i64 noundef %64, i64 noundef 8, ptr noundef @TocEntrySizeCompareQsort)
  br label %65

65:                                               ; preds = %61, %58
  call void @llvm.lifetime.start.p0(i64 4, ptr %8) #11
  store i32 0, ptr %8, align 4
  br label %66

66:                                               ; preds = %79, %65
  %67 = load i32, ptr %8, align 4
  %68 = load i32, ptr %7, align 4
  %69 = icmp slt i32 %67, %68
  br i1 %69, label %71, label %70

70:                                               ; preds = %66
  call void @llvm.lifetime.end.p0(i64 4, ptr %8) #11
  br label %82

71:                                               ; preds = %66
  %72 = load ptr, ptr %3, align 8
  %73 = load ptr, ptr %4, align 8
  %74 = load ptr, ptr %6, align 8
  %75 = load i32, ptr %8, align 4
  %76 = sext i32 %75 to i64
  %77 = getelementptr inbounds ptr, ptr %74, i64 %76
  %78 = load ptr, ptr %77, align 8
  call void @DispatchJobForTocEntry(ptr noundef %72, ptr noundef %73, ptr noundef %78, i32 noundef 0, ptr noundef @mark_dump_job_done, ptr noundef null)
  br label %79

79:                                               ; preds = %71
  %80 = load i32, ptr %8, align 4
  %81 = add i32 %80, 1
  store i32 %81, ptr %8, align 4
  br label %66, !llvm.loop !28

82:                                               ; preds = %70
  %83 = load ptr, ptr %6, align 8
  call void @pg_free(ptr noundef %83)
  %84 = load ptr, ptr %3, align 8
  %85 = load ptr, ptr %4, align 8
  call void @WaitForWorkers(ptr noundef %84, ptr noundef %85, i32 noundef 3)
  call void @llvm.lifetime.end.p0(i64 4, ptr %7) #11
  call void @llvm.lifetime.end.p0(i64 8, ptr %6) #11
  br label %119

86:                                               ; preds = %11, %2
  %87 = load ptr, ptr %3, align 8
  %88 = getelementptr inbounds nuw %struct._archiveHandle, ptr %87, i32 0, i32 53
  %89 = load ptr, ptr %88, align 8
  %90 = getelementptr inbounds nuw %struct._tocEntry, ptr %89, i32 0, i32 1
  %91 = load ptr, ptr %90, align 8
  store ptr %91, ptr %5, align 8
  br label %92

92:                                               ; preds = %114, %86
  %93 = load ptr, ptr %5, align 8
  %94 = load ptr, ptr %3, align 8
  %95 = getelementptr inbounds nuw %struct._archiveHandle, ptr %94, i32 0, i32 53
  %96 = load ptr, ptr %95, align 8
  %97 = icmp ne ptr %93, %96
  br i1 %97, label %98, label %118

98:                                               ; preds = %92
  %99 = load ptr, ptr %5, align 8
  %100 = getelementptr inbounds nuw %struct._tocEntry, ptr %99, i32 0, i32 18
  %101 = load ptr, ptr %100, align 8
  %102 = icmp ne ptr %101, null
  br i1 %102, label %104, label %103

103:                                              ; preds = %98
  br label %114

104:                                              ; preds = %98
  %105 = load ptr, ptr %5, align 8
  %106 = getelementptr inbounds nuw %struct._tocEntry, ptr %105, i32 0, i32 22
  %107 = load i32, ptr %106, align 8
  %108 = and i32 %107, 2
  %109 = icmp eq i32 %108, 0
  br i1 %109, label %110, label %111

110:                                              ; preds = %104
  br label %114

111:                                              ; preds = %104
  %112 = load ptr, ptr %3, align 8
  %113 = load ptr, ptr %5, align 8
  call void @WriteDataChunksForTocEntry(ptr noundef %112, ptr noundef %113)
  br label %114

114:                                              ; preds = %111, %110, %103
  %115 = load ptr, ptr %5, align 8
  %116 = getelementptr inbounds nuw %struct._tocEntry, ptr %115, i32 0, i32 1
  %117 = load ptr, ptr %116, align 8
  store ptr %117, ptr %5, align 8
  br label %92, !llvm.loop !29

118:                                              ; preds = %92
  br label %119

119:                                              ; preds = %118, %82
  call void @llvm.lifetime.end.p0(i64 8, ptr %5) #11
  ret void
}