; Function Attrs: nounwind uwtable
define dso_local void @WriteDataChunks(ptr noundef %0, ptr noundef %1) local_unnamed_addr #0 {
  %.not = icmp eq ptr %1, null
  br i1 %.not, label %35, label %3

3:                                                ; preds = %2
  %4 = load i32, ptr %1, align 8
  %5 = icmp sgt i32 %4, 1
  br i1 %5, label %6, label %35

6:                                                ; preds = %3
  %7 = getelementptr inbounds nuw i8, ptr %0, i64 512
  %8 = load i32, ptr %7, align 8
  %9 = sext i32 %8 to i64
  %10 = shl nsw i64 %9, 3
  %11 = tail call ptr @pg_malloc(i64 noundef %10) #22
  %12 = getelementptr inbounds nuw i8, ptr %0, i64 504
  %13 = load ptr, ptr %12, align 8
  %.033.in41 = getelementptr inbounds nuw i8, ptr %13, i64 8
  %.03342 = load ptr, ptr %.033.in41, align 8
  %.not3843 = icmp eq ptr %.03342, %13
  br i1 %.not3843, label %._crit_edge49, label %.lr.ph

.lr.ph:                                           ; preds = %6, %26
  %14 = phi ptr [ %27, %26 ], [ %13, %6 ]
  %.03345 = phi ptr [ %.033, %26 ], [ %.03342, %6 ]
  %.03244 = phi i32 [ %.1, %26 ], [ 0, %6 ]
  %15 = getelementptr inbounds nuw i8, ptr %.03345, i64 136
  %16 = load ptr, ptr %15, align 8
  %.not39 = icmp eq ptr %16, null
  br i1 %.not39, label %26, label %17

17:                                               ; preds = %.lr.ph
  %18 = getelementptr inbounds nuw i8, ptr %.03345, i64 168
  %19 = load i32, ptr %18, align 8
  %20 = and i32 %19, 2
  %21 = icmp eq i32 %20, 0
  br i1 %21, label %26, label %22

22:                                               ; preds = %17
  %23 = add i32 %.03244, 1
  %24 = sext i32 %.03244 to i64
  %25 = getelementptr inbounds ptr, ptr %11, i64 %24
  store ptr %.03345, ptr %25, align 8
  %.pre = load ptr, ptr %12, align 8
  br label %26

26:                                               ; preds = %17, %.lr.ph, %22
  %27 = phi ptr [ %14, %17 ], [ %.pre, %22 ], [ %14, %.lr.ph ]
  %.1 = phi i32 [ %.03244, %17 ], [ %23, %22 ], [ %.03244, %.lr.ph ]
  %.033.in = getelementptr inbounds nuw i8, ptr %.03345, i64 8
  %.033 = load ptr, ptr %.033.in, align 8
  %.not38 = icmp eq ptr %.033, %27
  br i1 %.not38, label %._crit_edge, label %.lr.ph, !llvm.loop !48

._crit_edge:                                      ; preds = %26
  %28 = icmp sgt i32 %.1, 1
  br i1 %28, label %.thread, label %31

.thread:                                          ; preds = %._crit_edge
  %29 = zext nneg i32 %.1 to i64
  tail call void @pg_qsort(ptr noundef %11, i64 noundef %29, i64 noundef 8, ptr noundef nonnull @TocEntrySizeCompareQsort) #22
  %30 = zext nneg i32 %.1 to i64
  br label %.lr.ph48.preheader

31:                                               ; preds = %._crit_edge
  %32 = icmp eq i32 %.1, 1
  br i1 %32, label %.lr.ph48.preheader, label %._crit_edge49

.lr.ph48.preheader:                               ; preds = %.thread, %31
  %.032.lcssa5961 = phi i64 [ %30, %.thread ], [ 1, %31 ]
  br label %.lr.ph48

._crit_edge49:                                    ; preds = %.lr.ph48, %6, %31
  tail call void @pg_free(ptr noundef %11) #22
  tail call void @WaitForWorkers(ptr noundef %0, ptr noundef nonnull %1, i32 noundef 3) #22
  br label %.loopexit

.lr.ph48:                                         ; preds = %.lr.ph48.preheader, %.lr.ph48
  %indvars.iv = phi i64 [ 0, %.lr.ph48.preheader ], [ %indvars.iv.next, %.lr.ph48 ]
  %33 = getelementptr inbounds nuw ptr, ptr %11, i64 %indvars.iv
  %34 = load ptr, ptr %33, align 8
  tail call void @DispatchJobForTocEntry(ptr noundef %0, ptr noundef nonnull %1, ptr noundef %34, i32 noundef 0, ptr noundef nonnull @mark_dump_job_done, ptr noundef null) #22
  %indvars.iv.next = add nuw nsw i64 %indvars.iv, 1
  %exitcond.not = icmp eq i64 %indvars.iv.next, %.032.lcssa5961
  br i1 %exitcond.not, label %._crit_edge49, label %.lr.ph48, !llvm.loop !49

35:                                               ; preds = %3, %2
  %36 = getelementptr inbounds nuw i8, ptr %0, i64 504
  %37 = load ptr, ptr %36, align 8
  %.134.in50 = getelementptr inbounds nuw i8, ptr %37, i64 8
  %.13451 = load ptr, ptr %.134.in50, align 8
  %.not3652 = icmp eq ptr %.13451, %37
  br i1 %.not3652, label %.loopexit, label %.lr.ph55

.lr.ph55:                                         ; preds = %35
  %38 = getelementptr inbounds nuw i8, ptr %0, i64 536
  br label %39

39:                                               ; preds = %.lr.ph55, %60
  %40 = phi ptr [ %37, %.lr.ph55 ], [ %61, %60 ]
  %.13453 = phi ptr [ %.13451, %.lr.ph55 ], [ %.134, %60 ]
  %41 = getelementptr inbounds nuw i8, ptr %.13453, i64 136
  %42 = load ptr, ptr %41, align 8
  %.not37 = icmp eq ptr %42, null
  br i1 %.not37, label %60, label %43

43:                                               ; preds = %39
  %44 = getelementptr inbounds nuw i8, ptr %.13453, i64 168
  %45 = load i32, ptr %44, align 8
  %46 = and i32 %45, 2
  %47 = icmp eq i32 %46, 0
  br i1 %47, label %60, label %48

48:                                               ; preds = %43
  store ptr %.13453, ptr %38, align 8
  %49 = getelementptr inbounds nuw i8, ptr %.13453, i64 88
  %50 = load ptr, ptr %49, align 8
  %51 = tail call i32 @strcmp(ptr noundef nonnull dereferenceable(1) %50, ptr noundef nonnull dereferenceable(6) @.str.87) #24
  %52 = icmp eq i32 %51, 0
  %.019.in.v.i = select i1 %52, i64 328, i64 224
  %.019.in.i = getelementptr inbounds nuw i8, ptr %0, i64 %.019.in.v.i
  %.0.in.v.i = select i1 %52, i64 336, i64 240
  %.0.in.i = getelementptr inbounds nuw i8, ptr %0, i64 %.0.in.v.i
  %.0.i = load ptr, ptr %.0.in.i, align 8
  %.019.i = load ptr, ptr %.019.in.i, align 8
  %.not.i = icmp eq ptr %.019.i, null
  br i1 %.not.i, label %54, label %53

53:                                               ; preds = %48
  tail call void %.019.i(ptr noundef nonnull %0, ptr noundef nonnull %.13453) #22
  br label %54

54:                                               ; preds = %53, %48
  %55 = load ptr, ptr %41, align 8
  %56 = getelementptr inbounds nuw i8, ptr %.13453, i64 144
  %57 = load ptr, ptr %56, align 8
  %58 = tail call i32 %55(ptr noundef nonnull %0, ptr noundef %57) #22
  %.not20.i = icmp eq ptr %.0.i, null
  br i1 %.not20.i, label %WriteDataChunksForTocEntry.exit, label %59

59:                                               ; preds = %54
  tail call void %.0.i(ptr noundef nonnull %0, ptr noundef nonnull %.13453) #22
  br label %WriteDataChunksForTocEntry.exit

WriteDataChunksForTocEntry.exit:                  ; preds = %54, %59
  store ptr null, ptr %38, align 8
  %.pre57 = load ptr, ptr %36, align 8
  br label %60

60:                                               ; preds = %43, %39, %WriteDataChunksForTocEntry.exit
  %61 = phi ptr [ %40, %43 ], [ %40, %39 ], [ %.pre57, %WriteDataChunksForTocEntry.exit ]
  %.134.in = getelementptr inbounds nuw i8, ptr %.13453, i64 8
  %.134 = load ptr, ptr %.134.in, align 8
  %.not36 = icmp eq ptr %.134, %61
  br i1 %.not36, label %.loopexit, label %39, !llvm.loop !50

.loopexit:                                        ; preds = %60, %35, %._crit_edge49
  ret void
}